target datalayout = "e-m:e-p270:32:32-p271:32:32-p272:64:64-i64:64-i128:128-f80:128-n8:16:32:64-S128"
target triple = "x86_64-pc-linux-gnu"

%struct.H5O_token_t = type { [16 x i8] }
%struct.obj_t = type { %struct.H5O_token_t, ptr, i8, i8 }
%struct.table_t = type { i64, i64, i64, ptr }

@type_table = external global ptr, align 8
@rawoutstream = external global ptr, align 8
@unamedtype = external global i32, align 4
@.str.23 = private unnamed_addr constant [2 x i8] c"{\00", align 1
@.str.36 = private unnamed_addr constant [7 x i8] c"%s %s\0A\00", align 1
@.str.52 = private unnamed_addr constant [2 x i8] c"}\00", align 1
@.str.53 = private unnamed_addr constant [14 x i8] c"FILE_CONTENTS\00", align 1
@.str.54 = private unnamed_addr constant [13 x i8] c" %-10s /#%s\0A\00", align 1
@.str.55 = private unnamed_addr constant [9 x i8] c"datatype\00", align 1
@.str.56 = private unnamed_addr constant [5 x i8] c" %s\0A\00", align 1

; Function Attrs: nounwind uwtable
define dso_local void @dump_fcontents(i64 noundef %0) #0 {
  %2 = alloca i64, align 8
  %3 = alloca i32, align 4
  %4 = alloca ptr, align 8
  store i64 %0, ptr %2, align 8, !tbaa !4
  %5 = load ptr, ptr @rawoutstream, align 8, !tbaa !20
  %6 = icmp ne ptr %5, null
  br i1 %6, label %7, label %10

7:                                                ; preds = %1
  %8 = load ptr, ptr @rawoutstream, align 8, !tbaa !20
  %9 = call i32 (ptr, ptr, ...) @fprintf(ptr noundef %8, ptr noundef @.str.36, ptr noundef @.str.53, ptr noundef @.str.23) #10
  br label %10

10:                                               ; preds = %7, %1
  %11 = load i32, ptr @unamedtype, align 4, !tbaa !11
  %12 = icmp ne i32 %11, 0
  br i1 %12, label %13, label %55

13:                                               ; preds = %10
  call void @llvm.lifetime.start.p0(i64 4, ptr %3) #10
  store i32 0, ptr %3, align 4, !tbaa !11
  br label %14

14:                                               ; preds = %51, %13
  %15 = load i32, ptr %3, align 4, !tbaa !11
  %16 = zext i32 %15 to i64
  %17 = load ptr, ptr @type_table, align 8, !tbaa !18
  %18 = getelementptr inbounds nuw %struct.table_t, ptr %17, i32 0, i32 2
  %19 = load i64, ptr %18, align 8, !tbaa !96
  %20 = icmp ult i64 %16, %19
  br i1 %20, label %21, label %54

21:                                               ; preds = %14
  %22 = load ptr, ptr @type_table, align 8, !tbaa !18
  %23 = getelementptr inbounds nuw %struct.table_t, ptr %22, i32 0, i32 3
  %24 = load ptr, ptr %23, align 8, !tbaa !98
  %25 = load i32, ptr %3, align 4, !tbaa !11
  %26 = zext i32 %25 to i64
  %27 = getelementptr inbounds nuw %struct.obj_t, ptr %24, i64 %26
  %28 = getelementptr inbounds nuw %struct.obj_t, ptr %27, i32 0, i32 3
  %29 = load i8, ptr %28, align 1, !tbaa !99, !range !60, !noundef !61
  %30 = trunc i8 %29 to i1
  br i1 %30, label %50, label %31

31:                                               ; preds = %21
  call void @llvm.lifetime.start.p0(i64 8, ptr %4) #10
  store ptr null, ptr %4, align 8, !tbaa !22
  %32 = load i64, ptr %2, align 8, !tbaa !4
  %33 = load ptr, ptr @type_table, align 8, !tbaa !18
  %34 = getelementptr inbounds nuw %struct.table_t, ptr %33, i32 0, i32 3
  %35 = load ptr, ptr %34, align 8, !tbaa !98
  %36 = load i32, ptr %3, align 4, !tbaa !11
  %37 = zext i32 %36 to i64
  %38 = getelementptr inbounds nuw %struct.obj_t, ptr %35, i64 %37
  %39 = getelementptr inbounds nuw %struct.obj_t, ptr %38, i32 0, i32 0
  %40 = call i32 @H5Otoken_to_str(i64 noundef %32, ptr noundef %39, ptr noundef %4)
  %41 = load ptr, ptr @rawoutstream, align 8, !tbaa !20
  %42 = icmp ne ptr %41, null
  br i1 %42, label %43, label %47

43:                                               ; preds = %31
  %44 = load ptr, ptr @rawoutstream, align 8, !tbaa !20
  %45 = load ptr, ptr %4, align 8, !tbaa !22
  %46 = call i32 (ptr, ptr, ...) @fprintf(ptr noundef %44, ptr noundef @.str.54, ptr noundef @.str.55, ptr noundef %45) #10
  br label %47

47:                                               ; preds = %43, %31
  %48 = load ptr, ptr %4, align 8, !tbaa !22
  %49 = call i32 @H5free_memory(ptr noundef %48)
  call void @llvm.lifetime.end.p0(i64 8, ptr %4) #10
  br label %50

50:                                               ; preds = %47, %21
  br label %51

51:                                               ; preds = %50
  %52 = load i32, ptr %3, align 4, !tbaa !11
  %53 = add i32 %52, 1
  store i32 %53, ptr %3, align 4, !tbaa !11
  br label %14, !llvm.loop !118

54:                                               ; preds = %14
  call void @llvm.lifetime.end.p0(i64 4, ptr %3) #10
  br label %55

55:                                               ; preds = %54, %10
  %56 = load i64, ptr %2, align 8, !tbaa !4
  %57 = call i32 @h5trav_print(i64 noundef %56)
  %58 = load ptr, ptr @rawoutstream, align 8, !tbaa !20
  %59 = icmp ne ptr %58, null
  br i1 %59, label %60, label %63

60:                                               ; preds = %55
  %61 = load ptr, ptr @rawoutstream, align 8, !tbaa !20
  %62 = call i32 (ptr, ptr, ...) @fprintf(ptr noundef %61, ptr noundef @.str.56, ptr noundef @.str.52) #10
  br label %63

63:                                               ; preds = %60, %55
  ret void
}