; Function Attrs: nounwind uwtable
define dso_local void @dump_fcontents(i64 noundef %0) local_unnamed_addr #0 {
  %2 = alloca ptr, align 8
  %3 = load ptr, ptr @rawoutstream, align 8, !tbaa !17
  %.not = icmp eq ptr %3, null
  br i1 %.not, label %6, label %4

4:                                                ; preds = %1
  %5 = tail call i32 (ptr, ptr, ...) @fprintf(ptr noundef nonnull %3, ptr noundef nonnull @.str.36, ptr noundef nonnull @.str.53, ptr noundef nonnull @.str.23) #15
  br label %6

6:                                                ; preds = %4, %1
  %7 = load i32, ptr @unamedtype, align 4, !tbaa !4
  %.not10 = icmp eq i32 %7, 0
  br i1 %.not10, label %.loopexit, label %.preheader

.preheader:                                       ; preds = %6
  %8 = load ptr, ptr @type_table, align 8, !tbaa !15
  %9 = getelementptr inbounds nuw i8, ptr %8, i64 16
  %10 = load i64, ptr %9, align 8, !tbaa !98
  %.not14 = icmp eq i64 %10, 0
  br i1 %.not14, label %.loopexit, label %.lr.ph

.lr.ph:                                           ; preds = %.preheader, %28
  %11 = phi ptr [ %29, %28 ], [ %8, %.preheader ]
  %12 = phi i64 [ %31, %28 ], [ 0, %.preheader ]
  %.013 = phi i32 [ %30, %28 ], [ 0, %.preheader ]
  %13 = getelementptr inbounds nuw i8, ptr %11, i64 24
  %14 = load ptr, ptr %13, align 8, !tbaa !101
  %15 = getelementptr inbounds nuw %struct.obj_t, ptr %14, i64 %12, i32 3
  %16 = load i8, ptr %15, align 1, !tbaa !102, !range !57, !noundef !58
  %17 = trunc nuw i8 %16 to i1
  br i1 %17, label %28, label %18

18:                                               ; preds = %.lr.ph
  call void @llvm.lifetime.start.p0(i64 8, ptr nonnull %2) #15
  store ptr null, ptr %2, align 8, !tbaa !30
  %19 = getelementptr inbounds nuw %struct.obj_t, ptr %14, i64 %12
  %20 = call i32 @H5Otoken_to_str(i64 noundef %0, ptr noundef %19, ptr noundef nonnull %2) #15
  %21 = load ptr, ptr @rawoutstream, align 8, !tbaa !17
  %.not12 = icmp eq ptr %21, null
  br i1 %.not12, label %25, label %22

22:                                               ; preds = %18
  %23 = load ptr, ptr %2, align 8, !tbaa !30
  %24 = call i32 (ptr, ptr, ...) @fprintf(ptr noundef nonnull %21, ptr noundef nonnull @.str.54, ptr noundef nonnull @.str.55, ptr noundef %23) #15
  br label %25

25:                                               ; preds = %22, %18
  %26 = load ptr, ptr %2, align 8, !tbaa !30
  %27 = call i32 @H5free_memory(ptr noundef %26) #15
  call void @llvm.lifetime.end.p0(i64 8, ptr nonnull %2) #15
  %.pre = load ptr, ptr @type_table, align 8, !tbaa !15
  br label %28

28:                                               ; preds = %.lr.ph, %25
  %29 = phi ptr [ %11, %.lr.ph ], [ %.pre, %25 ]
  %30 = add i32 %.013, 1
  %31 = zext i32 %30 to i64
  %32 = getelementptr inbounds nuw i8, ptr %29, i64 16
  %33 = load i64, ptr %32, align 8, !tbaa !98
  %34 = icmp ugt i64 %33, %31
  br i1 %34, label %.lr.ph, label %.loopexit, !llvm.loop !120

.loopexit:                                        ; preds = %28, %.preheader, %6
  %35 = call i32 @h5trav_print(i64 noundef %0) #15
  %36 = load ptr, ptr @rawoutstream, align 8, !tbaa !17
  %.not11 = icmp eq ptr %36, null
  br i1 %.not11, label %39, label %37

37:                                               ; preds = %.loopexit
  %38 = call i32 (ptr, ptr, ...) @fprintf(ptr noundef nonnull %36, ptr noundef nonnull @.str.56, ptr noundef nonnull @.str.52) #15
  br label %39

39:                                               ; preds = %37, %.loopexit
  ret void
}